target datalayout = "e-m:e-p270:32:32-p271:32:32-p272:64:64-i64:64-i128:128-f80:128-n8:16:32:64-S128"
target triple = "x86_64-pc-linux-gnu"

%"class.llvm::ArrayRef" = type { ptr, i64 }
%"class.llvm::ArrayRef.0" = type { ptr, i64 }
%"class.llvm::SmallVectorBase" = type { ptr, i32, i32 }
%"class.(anonymous namespace)::X86InterleavedAccessGroup" = type { ptr, %"class.llvm::ArrayRef", %"class.llvm::ArrayRef.0", i32, ptr, ptr, ptr }
%"class.llvm::ArrayRef.98" = type { ptr, i64 }
%"class.llvm::ArrayRef.57" = type { ptr, i64 }
%"class.llvm::Twine" = type <{ %"union.llvm::Twine::Child", %"union.llvm::Twine::Child", i8, i8, [6 x i8] }>
%"union.llvm::Twine::Child" = type { %struct.anon }
%struct.anon = type { ptr, i64 }

@.str = private unnamed_addr constant [1 x i8] zeroinitializer, align 1
@_ZZN12_GLOBAL__N_125X86InterleavedAccessGroup13transpose_4x4EN4llvm8ArrayRefIPNS1_11InstructionEEERNS1_15SmallVectorImplIPNS1_5ValueEEEE8IntMask1 = internal constant [4 x i32] [i32 0, i32 1, i32 4, i32 5], align 16
@_ZZN12_GLOBAL__N_125X86InterleavedAccessGroup13transpose_4x4EN4llvm8ArrayRefIPNS1_11InstructionEEERNS1_15SmallVectorImplIPNS1_5ValueEEEE8IntMask2 = internal constant [4 x i32] [i32 2, i32 3, i32 6, i32 7], align 16
@_ZZN12_GLOBAL__N_125X86InterleavedAccessGroup13transpose_4x4EN4llvm8ArrayRefIPNS1_11InstructionEEERNS1_15SmallVectorImplIPNS1_5ValueEEEE8IntMask3 = internal constant [4 x i32] [i32 0, i32 4, i32 2, i32 6], align 16
@_ZZN12_GLOBAL__N_125X86InterleavedAccessGroup13transpose_4x4EN4llvm8ArrayRefIPNS1_11InstructionEEERNS1_15SmallVectorImplIPNS1_5ValueEEEE8IntMask4 = internal constant [4 x i32] [i32 1, i32 5, i32 3, i32 7], align 16

; Function Attrs: mustprogress nounwind uwtable
define linkonce_odr hidden noundef ptr @_ZN4llvm25SmallVectorTemplateCommonIPNS_5ValueEvE5beginEv(ptr noundef nonnull align 8 dereferenceable(16) %0) #0 comdat align 2 {
  %2 = alloca ptr, align 8
  store ptr %0, ptr %2, align 8
  %3 = load ptr, ptr %2, align 8
  %4 = getelementptr inbounds nuw %"class.llvm::SmallVectorBase", ptr %3, i32 0, i32 0
  %5 = load ptr, ptr %4, align 8
  ret ptr %5
}

; Function Attrs: mustprogress nounwind uwtable
define linkonce_odr hidden noundef nonnull align 8 dereferenceable(8) ptr @_ZN4llvm25SmallVectorTemplateCommonIPNS_5ValueEvEixEm(ptr noundef nonnull align 8 dereferenceable(16) %0, i64 noundef %1) #0 comdat align 2 {
  %3 = alloca ptr, align 8
  %4 = alloca i64, align 8
  store ptr %0, ptr %3, align 8
  store i64 %1, ptr %4, align 8
  %5 = load ptr, ptr %3, align 8
  %6 = call noundef ptr @_ZN4llvm25SmallVectorTemplateCommonIPNS_5ValueEvE5beginEv(ptr noundef nonnull align 8 dereferenceable(16) %5)
  %7 = load i64, ptr %4, align 8
  %8 = getelementptr inbounds ptr, ptr %6, i64 %7
  ret ptr %8
}

; Function Attrs: mustprogress nounwind uwtable
define linkonce_odr hidden void @_ZN4llvm5TwineC2EPKc(ptr noundef nonnull align 8 dereferenceable(34) %0, ptr noundef %1) unnamed_addr #0 comdat align 2 {
  %3 = alloca ptr, align 8
  %4 = alloca ptr, align 8
  store ptr %0, ptr %3, align 8
  store ptr %1, ptr %4, align 8
  %5 = load ptr, ptr %3, align 8
  %6 = getelementptr inbounds nuw %"class.llvm::Twine", ptr %5, i32 0, i32 2
  store i8 1, ptr %6, align 8
  %7 = getelementptr inbounds nuw %"class.llvm::Twine", ptr %5, i32 0, i32 3
  store i8 1, ptr %7, align 1
  %8 = load ptr, ptr %4, align 8
  %9 = getelementptr inbounds i8, ptr %8, i64 0
  %10 = load i8, ptr %9, align 1
  %11 = sext i8 %10 to i32
  %12 = icmp ne i32 %11, 0
  br i1 %12, label %13, label %17

13:                                               ; preds = %2
  %14 = load ptr, ptr %4, align 8
  %15 = getelementptr inbounds nuw %"class.llvm::Twine", ptr %5, i32 0, i32 0
  store ptr %14, ptr %15, align 8
  %16 = getelementptr inbounds nuw %"class.llvm::Twine", ptr %5, i32 0, i32 2
  store i8 3, ptr %16, align 8
  br label %19

17:                                               ; preds = %2
  %18 = getelementptr inbounds nuw %"class.llvm::Twine", ptr %5, i32 0, i32 2
  store i8 1, ptr %18, align 8
  br label %19

19:                                               ; preds = %17, %13
  ret void
}

; Function Attrs: mustprogress nounwind uwtable
define linkonce_odr hidden noundef nonnull align 8 dereferenceable(8) ptr @_ZNK4llvm8ArrayRefIPNS_11InstructionEEixEm(ptr noundef nonnull align 8 dereferenceable(16) %0, i64 noundef %1) #0 comdat align 2 {
  %3 = alloca ptr, align 8
  %4 = alloca i64, align 8
  store ptr %0, ptr %3, align 8
  store i64 %1, ptr %4, align 8
  %5 = load ptr, ptr %3, align 8
  %6 = getelementptr inbounds nuw %"class.llvm::ArrayRef.98", ptr %5, i32 0, i32 0
  %7 = load ptr, ptr %6, align 8
  %8 = load i64, ptr %4, align 8
  %9 = getelementptr inbounds ptr, ptr %7, i64 %8
  ret ptr %9
}

; Function Attrs: mustprogress nounwind uwtable
define linkonce_odr hidden void @_ZN4llvm8ArrayRefIiEC2EPKim(ptr noundef nonnull align 8 dereferenceable(16) %0, ptr noundef %1, i64 noundef %2) unnamed_addr #0 comdat align 2 {
  %4 = alloca ptr, align 8
  %5 = alloca ptr, align 8
  %6 = alloca i64, align 8
  store ptr %0, ptr %4, align 8
  store ptr %1, ptr %5, align 8
  store i64 %2, ptr %6, align 8
  %7 = load ptr, ptr %4, align 8
  %8 = getelementptr inbounds nuw %"class.llvm::ArrayRef.57", ptr %7, i32 0, i32 0
  %9 = load ptr, ptr %5, align 8
  store ptr %9, ptr %8, align 8
  %10 = getelementptr inbounds nuw %"class.llvm::ArrayRef.57", ptr %7, i32 0, i32 1
  %11 = load i64, ptr %6, align 8
  store i64 %11, ptr %10, align 8
  ret void
}

; Function Attrs: mustprogress nounwind uwtable
define linkonce_odr hidden void @_ZN4llvm15SmallVectorImplIPNS_5ValueEE6resizeEm(ptr noundef nonnull align 8 dereferenceable(16) %0, i64 noundef %1) #0 comdat align 2 {
  %3 = alloca ptr, align 8
  %4 = alloca i64, align 8
  store ptr %0, ptr %3, align 8
  store i64 %1, ptr %4, align 8
  %5 = load ptr, ptr %3, align 8
  %6 = load i64, ptr %4, align 8
  call void @_ZN4llvm15SmallVectorImplIPNS_5ValueEE10resizeImplILb0EEEvm(ptr noundef nonnull align 8 dereferenceable(16) %5, i64 noundef %6)
  ret void
}

; Function Attrs: mustprogress nounwind uwtable
define internal void @_ZN12_GLOBAL__N_125X86InterleavedAccessGroup13transpose_4x4EN4llvm8ArrayRefIPNS1_11InstructionEEERNS1_15SmallVectorImplIPNS1_5ValueEEE(ptr noundef nonnull align 8 dereferenceable(72) %0, ptr %1, i64 %2, ptr noundef nonnull align 8 dereferenceable(16) %3) #0 align 2 {
  %5 = alloca %"class.llvm::ArrayRef.98", align 8
  %6 = alloca ptr, align 8
  %7 = alloca ptr, align 8
  %8 = alloca %"class.llvm::ArrayRef.57", align 8
  %9 = alloca ptr, align 8
  %10 = alloca %"class.llvm::ArrayRef.57", align 8
  %11 = alloca %"class.llvm::Twine", align 8
  %12 = alloca ptr, align 8
  %13 = alloca %"class.llvm::ArrayRef.57", align 8
  %14 = alloca %"class.llvm::Twine", align 8
  %15 = alloca %"class.llvm::ArrayRef.57", align 8
  %16 = alloca ptr, align 8
  %17 = alloca %"class.llvm::ArrayRef.57", align 8
  %18 = alloca %"class.llvm::Twine", align 8
  %19 = alloca ptr, align 8
  %20 = alloca %"class.llvm::ArrayRef.57", align 8
  %21 = alloca %"class.llvm::Twine", align 8
  %22 = alloca %"class.llvm::ArrayRef.57", align 8
  %23 = alloca %"class.llvm::ArrayRef.57", align 8
  %24 = alloca %"class.llvm::Twine", align 8
  %25 = alloca %"class.llvm::ArrayRef.57", align 8
  %26 = alloca %"class.llvm::Twine", align 8
  %27 = alloca %"class.llvm::ArrayRef.57", align 8
  %28 = alloca %"class.llvm::ArrayRef.57", align 8
  %29 = alloca %"class.llvm::Twine", align 8
  %30 = alloca %"class.llvm::ArrayRef.57", align 8
  %31 = alloca %"class.llvm::Twine", align 8
  %32 = getelementptr inbounds nuw { ptr, i64 }, ptr %5, i32 0, i32 0
  store ptr %1, ptr %32, align 8
  %33 = getelementptr inbounds nuw { ptr, i64 }, ptr %5, i32 0, i32 1
  store i64 %2, ptr %33, align 8
  store ptr %0, ptr %6, align 8
  store ptr %3, ptr %7, align 8
  %34 = load ptr, ptr %6, align 8
  %35 = load ptr, ptr %7, align 8
  call void @_ZN4llvm15SmallVectorImplIPNS_5ValueEE6resizeEm(ptr noundef nonnull align 8 dereferenceable(16) %35, i64 noundef 4)
  call void @_ZN4llvm8ArrayRefIiEC2EPKim(ptr noundef nonnull align 8 dereferenceable(16) %8, ptr noundef @_ZZN12_GLOBAL__N_125X86InterleavedAccessGroup13transpose_4x4EN4llvm8ArrayRefIPNS1_11InstructionEEERNS1_15SmallVectorImplIPNS1_5ValueEEEE8IntMask1, i64 noundef 4)
  %36 = getelementptr inbounds nuw %"class.(anonymous namespace)::X86InterleavedAccessGroup", ptr %34, i32 0, i32 6
  %37 = load ptr, ptr %36, align 8
  %38 = call noundef nonnull align 8 dereferenceable(8) ptr @_ZNK4llvm8ArrayRefIPNS_11InstructionEEixEm(ptr noundef nonnull align 8 dereferenceable(16) %5, i64 noundef 0)
  %39 = load ptr, ptr %38, align 8
  %40 = call noundef nonnull align 8 dereferenceable(8) ptr @_ZNK4llvm8ArrayRefIPNS_11InstructionEEixEm(ptr noundef nonnull align 8 dereferenceable(16) %5, i64 noundef 2)
  %41 = load ptr, ptr %40, align 8
  call void @llvm.memcpy.p0.p0.i64(ptr align 8 %10, ptr align 8 %8, i64 16, i1 false)
  call void @_ZN4llvm5TwineC2EPKc(ptr noundef nonnull align 8 dereferenceable(34) %11, ptr noundef @.str)
  %42 = getelementptr inbounds nuw { ptr, i64 }, ptr %10, i32 0, i32 0
  %43 = load ptr, ptr %42, align 8
  %44 = getelementptr inbounds nuw { ptr, i64 }, ptr %10, i32 0, i32 1
  %45 = load i64, ptr %44, align 8
  %46 = call noundef ptr @_ZN4llvm13IRBuilderBase19CreateShuffleVectorEPNS_5ValueES2_NS_8ArrayRefIiEERKNS_5TwineE(ptr noundef nonnull align 8 dereferenceable(128) %37, ptr noundef %39, ptr noundef %41, ptr %43, i64 %45, ptr noundef nonnull align 8 dereferenceable(34) %11)
  store ptr %46, ptr %9, align 8
  %47 = getelementptr inbounds nuw %"class.(anonymous namespace)::X86InterleavedAccessGroup", ptr %34, i32 0, i32 6
  %48 = load ptr, ptr %47, align 8
  %49 = call noundef nonnull align 8 dereferenceable(8) ptr @_ZNK4llvm8ArrayRefIPNS_11InstructionEEixEm(ptr noundef nonnull align 8 dereferenceable(16) %5, i64 noundef 1)
  %50 = load ptr, ptr %49, align 8
  %51 = call noundef nonnull align 8 dereferenceable(8) ptr @_ZNK4llvm8ArrayRefIPNS_11InstructionEEixEm(ptr noundef nonnull align 8 dereferenceable(16) %5, i64 noundef 3)
  %52 = load ptr, ptr %51, align 8
  call void @llvm.memcpy.p0.p0.i64(ptr align 8 %13, ptr align 8 %8, i64 16, i1 false)
  call void @_ZN4llvm5TwineC2EPKc(ptr noundef nonnull align 8 dereferenceable(34) %14, ptr noundef @.str)
  %53 = getelementptr inbounds nuw { ptr, i64 }, ptr %13, i32 0, i32 0
  %54 = load ptr, ptr %53, align 8
  %55 = getelementptr inbounds nuw { ptr, i64 }, ptr %13, i32 0, i32 1
  %56 = load i64, ptr %55, align 8
  %57 = call noundef ptr @_ZN4llvm13IRBuilderBase19CreateShuffleVectorEPNS_5ValueES2_NS_8ArrayRefIiEERKNS_5TwineE(ptr noundef nonnull align 8 dereferenceable(128) %48, ptr noundef %50, ptr noundef %52, ptr %54, i64 %56, ptr noundef nonnull align 8 dereferenceable(34) %14)
  store ptr %57, ptr %12, align 8
  call void @_ZN4llvm8ArrayRefIiEC2EPKim(ptr noundef nonnull align 8 dereferenceable(16) %15, ptr noundef @_ZZN12_GLOBAL__N_125X86InterleavedAccessGroup13transpose_4x4EN4llvm8ArrayRefIPNS1_11InstructionEEERNS1_15SmallVectorImplIPNS1_5ValueEEEE8IntMask2, i64 noundef 4)
  call void @llvm.memcpy.p0.p0.i64(ptr align 8 %8, ptr align 8 %15, i64 16, i1 false)
  %58 = getelementptr inbounds nuw %"class.(anonymous namespace)::X86InterleavedAccessGroup", ptr %34, i32 0, i32 6
  %59 = load ptr, ptr %58, align 8
  %60 = call noundef nonnull align 8 dereferenceable(8) ptr @_ZNK4llvm8ArrayRefIPNS_11InstructionEEixEm(ptr noundef nonnull align 8 dereferenceable(16) %5, i64 noundef 0)
  %61 = load ptr, ptr %60, align 8
  %62 = call noundef nonnull align 8 dereferenceable(8) ptr @_ZNK4llvm8ArrayRefIPNS_11InstructionEEixEm(ptr noundef nonnull align 8 dereferenceable(16) %5, i64 noundef 2)
  %63 = load ptr, ptr %62, align 8
  call void @llvm.memcpy.p0.p0.i64(ptr align 8 %17, ptr align 8 %8, i64 16, i1 false)
  call void @_ZN4llvm5TwineC2EPKc(ptr noundef nonnull align 8 dereferenceable(34) %18, ptr noundef @.str)
  %64 = getelementptr inbounds nuw { ptr, i64 }, ptr %17, i32 0, i32 0
  %65 = load ptr, ptr %64, align 8
  %66 = getelementptr inbounds nuw { ptr, i64 }, ptr %17, i32 0, i32 1
  %67 = load i64, ptr %66, align 8
  %68 = call noundef ptr @_ZN4llvm13IRBuilderBase19CreateShuffleVectorEPNS_5ValueES2_NS_8ArrayRefIiEERKNS_5TwineE(ptr noundef nonnull align 8 dereferenceable(128) %59, ptr noundef %61, ptr noundef %63, ptr %65, i64 %67, ptr noundef nonnull align 8 dereferenceable(34) %18)
  store ptr %68, ptr %16, align 8
  %69 = getelementptr inbounds nuw %"class.(anonymous namespace)::X86InterleavedAccessGroup", ptr %34, i32 0, i32 6
  %70 = load ptr, ptr %69, align 8
  %71 = call noundef nonnull align 8 dereferenceable(8) ptr @_ZNK4llvm8ArrayRefIPNS_11InstructionEEixEm(ptr noundef nonnull align 8 dereferenceable(16) %5, i64 noundef 1)
  %72 = load ptr, ptr %71, align 8
  %73 = call noundef nonnull align 8 dereferenceable(8) ptr @_ZNK4llvm8ArrayRefIPNS_11InstructionEEixEm(ptr noundef nonnull align 8 dereferenceable(16) %5, i64 noundef 3)
  %74 = load ptr, ptr %73, align 8
  call void @llvm.memcpy.p0.p0.i64(ptr align 8 %20, ptr align 8 %8, i64 16, i1 false)
  call void @_ZN4llvm5TwineC2EPKc(ptr noundef nonnull align 8 dereferenceable(34) %21, ptr noundef @.str)
  %75 = getelementptr inbounds nuw { ptr, i64 }, ptr %20, i32 0, i32 0
  %76 = load ptr, ptr %75, align 8
  %77 = getelementptr inbounds nuw { ptr, i64 }, ptr %20, i32 0, i32 1
  %78 = load i64, ptr %77, align 8
  %79 = call noundef ptr @_ZN4llvm13IRBuilderBase19CreateShuffleVectorEPNS_5ValueES2_NS_8ArrayRefIiEERKNS_5TwineE(ptr noundef nonnull align 8 dereferenceable(128) %70, ptr noundef %72, ptr noundef %74, ptr %76, i64 %78, ptr noundef nonnull align 8 dereferenceable(34) %21)
  store ptr %79, ptr %19, align 8
  call void @_ZN4llvm8ArrayRefIiEC2EPKim(ptr noundef nonnull align 8 dereferenceable(16) %22, ptr noundef @_ZZN12_GLOBAL__N_125X86InterleavedAccessGroup13transpose_4x4EN4llvm8ArrayRefIPNS1_11InstructionEEERNS1_15SmallVectorImplIPNS1_5ValueEEEE8IntMask3, i64 noundef 4)
  call void @llvm.memcpy.p0.p0.i64(ptr align 8 %8, ptr align 8 %22, i64 16, i1 false)
  %80 = getelementptr inbounds nuw %"class.(anonymous namespace)::X86InterleavedAccessGroup", ptr %34, i32 0, i32 6
  %81 = load ptr, ptr %80, align 8
  %82 = load ptr, ptr %9, align 8
  %83 = load ptr, ptr %12, align 8
  call void @llvm.memcpy.p0.p0.i64(ptr align 8 %23, ptr align 8 %8, i64 16, i1 false)
  call void @_ZN4llvm5TwineC2EPKc(ptr noundef nonnull align 8 dereferenceable(34) %24, ptr noundef @.str)
  %84 = getelementptr inbounds nuw { ptr, i64 }, ptr %23, i32 0, i32 0
  %85 = load ptr, ptr %84, align 8
  %86 = getelementptr inbounds nuw { ptr, i64 }, ptr %23, i32 0, i32 1
  %87 = load i64, ptr %86, align 8
  %88 = call noundef ptr @_ZN4llvm13IRBuilderBase19CreateShuffleVectorEPNS_5ValueES2_NS_8ArrayRefIiEERKNS_5TwineE(ptr noundef nonnull align 8 dereferenceable(128) %81, ptr noundef %82, ptr noundef %83, ptr %85, i64 %87, ptr noundef nonnull align 8 dereferenceable(34) %24)
  %89 = load ptr, ptr %7, align 8
  %90 = call noundef nonnull align 8 dereferenceable(8) ptr @_ZN4llvm25SmallVectorTemplateCommonIPNS_5ValueEvEixEm(ptr noundef nonnull align 8 dereferenceable(16) %89, i64 noundef 0)
  store ptr %88, ptr %90, align 8
  %91 = getelementptr inbounds nuw %"class.(anonymous namespace)::X86InterleavedAccessGroup", ptr %34, i32 0, i32 6
  %92 = load ptr, ptr %91, align 8
  %93 = load ptr, ptr %16, align 8
  %94 = load ptr, ptr %19, align 8
  call void @llvm.memcpy.p0.p0.i64(ptr align 8 %25, ptr align 8 %8, i64 16, i1 false)
  call void @_ZN4llvm5TwineC2EPKc(ptr noundef nonnull align 8 dereferenceable(34) %26, ptr noundef @.str)
  %95 = getelementptr inbounds nuw { ptr, i64 }, ptr %25, i32 0, i32 0
  %96 = load ptr, ptr %95, align 8
  %97 = getelementptr inbounds nuw { ptr, i64 }, ptr %25, i32 0, i32 1
  %98 = load i64, ptr %97, align 8
  %99 = call noundef ptr @_ZN4llvm13IRBuilderBase19CreateShuffleVectorEPNS_5ValueES2_NS_8ArrayRefIiEERKNS_5TwineE(ptr noundef nonnull align 8 dereferenceable(128) %92, ptr noundef %93, ptr noundef %94, ptr %96, i64 %98, ptr noundef nonnull align 8 dereferenceable(34) %26)
  %100 = load ptr, ptr %7, align 8
  %101 = call noundef nonnull align 8 dereferenceable(8) ptr @_ZN4llvm25SmallVectorTemplateCommonIPNS_5ValueEvEixEm(ptr noundef nonnull align 8 dereferenceable(16) %100, i64 noundef 2)
  store ptr %99, ptr %101, align 8
  call void @_ZN4llvm8ArrayRefIiEC2EPKim(ptr noundef nonnull align 8 dereferenceable(16) %27, ptr noundef @_ZZN12_GLOBAL__N_125X86InterleavedAccessGroup13transpose_4x4EN4llvm8ArrayRefIPNS1_11InstructionEEERNS1_15SmallVectorImplIPNS1_5ValueEEEE8IntMask4, i64 noundef 4)
  call void @llvm.memcpy.p0.p0.i64(ptr align 8 %8, ptr align 8 %27, i64 16, i1 false)
  %102 = getelementptr inbounds nuw %"class.(anonymous namespace)::X86InterleavedAccessGroup", ptr %34, i32 0, i32 6
  %103 = load ptr, ptr %102, align 8
  %104 = load ptr, ptr %9, align 8
  %105 = load ptr, ptr %12, align 8
  call void @llvm.memcpy.p0.p0.i64(ptr align 8 %28, ptr align 8 %8, i64 16, i1 false)
  call void @_ZN4llvm5TwineC2EPKc(ptr noundef nonnull align 8 dereferenceable(34) %29, ptr noundef @.str)
  %106 = getelementptr inbounds nuw { ptr, i64 }, ptr %28, i32 0, i32 0
  %107 = load ptr, ptr %106, align 8
  %108 = getelementptr inbounds nuw { ptr, i64 }, ptr %28, i32 0, i32 1
  %109 = load i64, ptr %108, align 8
  %110 = call noundef ptr @_ZN4llvm13IRBuilderBase19CreateShuffleVectorEPNS_5ValueES2_NS_8ArrayRefIiEERKNS_5TwineE(ptr noundef nonnull align 8 dereferenceable(128) %103, ptr noundef %104, ptr noundef %105, ptr %107, i64 %109, ptr noundef nonnull align 8 dereferenceable(34) %29)
  %111 = load ptr, ptr %7, align 8
  %112 = call noundef nonnull align 8 dereferenceable(8) ptr @_ZN4llvm25SmallVectorTemplateCommonIPNS_5ValueEvEixEm(ptr noundef nonnull align 8 dereferenceable(16) %111, i64 noundef 1)
  store ptr %110, ptr %112, align 8
  %113 = getelementptr inbounds nuw %"class.(anonymous namespace)::X86InterleavedAccessGroup", ptr %34, i32 0, i32 6
  %114 = load ptr, ptr %113, align 8
  %115 = load ptr, ptr %16, align 8
  %116 = load ptr, ptr %19, align 8
  call void @llvm.memcpy.p0.p0.i64(ptr align 8 %30, ptr align 8 %8, i64 16, i1 false)
  call void @_ZN4llvm5TwineC2EPKc(ptr noundef nonnull align 8 dereferenceable(34) %31, ptr noundef @.str)
  %117 = getelementptr inbounds nuw { ptr, i64 }, ptr %30, i32 0, i32 0
  %118 = load ptr, ptr %117, align 8
  %119 = getelementptr inbounds nuw { ptr, i64 }, ptr %30, i32 0, i32 1
  %120 = load i64, ptr %119, align 8
  %121 = call noundef ptr @_ZN4llvm13IRBuilderBase19CreateShuffleVectorEPNS_5ValueES2_NS_8ArrayRefIiEERKNS_5TwineE(ptr noundef nonnull align 8 dereferenceable(128) %114, ptr noundef %115, ptr noundef %116, ptr %118, i64 %120, ptr noundef nonnull align 8 dereferenceable(34) %31)
  %122 = load ptr, ptr %7, align 8
  %123 = call noundef nonnull align 8 dereferenceable(8) ptr @_ZN4llvm25SmallVectorTemplateCommonIPNS_5ValueEvEixEm(ptr noundef nonnull align 8 dereferenceable(16) %122, i64 noundef 3)
  store ptr %121, ptr %123, align 8
  ret void
}