; Function Attrs: mustprogress nounwind uwtable
define internal fastcc void @_ZN12_GLOBAL__N_125X86InterleavedAccessGroup13transpose_4x4EN4llvm8ArrayRefIPNS1_11InstructionEEERNS1_15SmallVectorImplIPNS1_5ValueEEE(ptr nocapture noundef nonnull readonly align 8 dereferenceable(72) %0, ptr nocapture readonly %1, ptr noundef nonnull align 8 dereferenceable(16) %2) unnamed_addr #0 align 2 {
  %4 = alloca %"class.llvm::Twine", align 8
  %5 = alloca %"class.llvm::Twine", align 8
  %6 = alloca %"class.llvm::Twine", align 8
  %7 = alloca %"class.llvm::Twine", align 8
  %8 = alloca %"class.llvm::Twine", align 8
  %9 = alloca %"class.llvm::Twine", align 8
  %10 = alloca %"class.llvm::Twine", align 8
  %11 = alloca %"class.llvm::Twine", align 8
  tail call void @_ZN4llvm15SmallVectorImplIPNS_5ValueEE10resizeImplILb0EEEvm(ptr noundef nonnull align 8 dereferenceable(16) %2, i64 noundef 4)
  %12 = getelementptr inbounds nuw i8, ptr %0, i64 64
  %13 = load ptr, ptr %12, align 8
  %14 = load ptr, ptr %1, align 8
  %15 = getelementptr inbounds i8, ptr %1, i64 16
  %16 = load ptr, ptr %15, align 8
  %17 = getelementptr inbounds nuw i8, ptr %4, i64 32
  store i16 257, ptr %17, align 8
  %18 = call noundef ptr @_ZN4llvm13IRBuilderBase19CreateShuffleVectorEPNS_5ValueES2_NS_8ArrayRefIiEERKNS_5TwineE(ptr noundef nonnull align 8 dereferenceable(128) %13, ptr noundef %14, ptr noundef %16, ptr nonnull @_ZZN12_GLOBAL__N_125X86InterleavedAccessGroup13transpose_4x4EN4llvm8ArrayRefIPNS1_11InstructionEEERNS1_15SmallVectorImplIPNS1_5ValueEEEE8IntMask1, i64 4, ptr noundef nonnull align 8 dereferenceable(34) %4)
  %19 = load ptr, ptr %12, align 8
  %20 = getelementptr inbounds i8, ptr %1, i64 8
  %21 = load ptr, ptr %20, align 8
  %22 = getelementptr inbounds i8, ptr %1, i64 24
  %23 = load ptr, ptr %22, align 8
  %24 = getelementptr inbounds nuw i8, ptr %5, i64 32
  store i16 257, ptr %24, align 8
  %25 = call noundef ptr @_ZN4llvm13IRBuilderBase19CreateShuffleVectorEPNS_5ValueES2_NS_8ArrayRefIiEERKNS_5TwineE(ptr noundef nonnull align 8 dereferenceable(128) %19, ptr noundef %21, ptr noundef %23, ptr nonnull @_ZZN12_GLOBAL__N_125X86InterleavedAccessGroup13transpose_4x4EN4llvm8ArrayRefIPNS1_11InstructionEEERNS1_15SmallVectorImplIPNS1_5ValueEEEE8IntMask1, i64 4, ptr noundef nonnull align 8 dereferenceable(34) %5)
  %26 = load ptr, ptr %12, align 8
  %27 = load ptr, ptr %1, align 8
  %28 = load ptr, ptr %15, align 8
  %29 = getelementptr inbounds nuw i8, ptr %6, i64 32
  store i16 257, ptr %29, align 8
  %30 = call noundef ptr @_ZN4llvm13IRBuilderBase19CreateShuffleVectorEPNS_5ValueES2_NS_8ArrayRefIiEERKNS_5TwineE(ptr noundef nonnull align 8 dereferenceable(128) %26, ptr noundef %27, ptr noundef %28, ptr nonnull @_ZZN12_GLOBAL__N_125X86InterleavedAccessGroup13transpose_4x4EN4llvm8ArrayRefIPNS1_11InstructionEEERNS1_15SmallVectorImplIPNS1_5ValueEEEE8IntMask2, i64 4, ptr noundef nonnull align 8 dereferenceable(34) %6)
  %31 = load ptr, ptr %12, align 8
  %32 = load ptr, ptr %20, align 8
  %33 = load ptr, ptr %22, align 8
  %34 = getelementptr inbounds nuw i8, ptr %7, i64 32
  store i16 257, ptr %34, align 8
  %35 = call noundef ptr @_ZN4llvm13IRBuilderBase19CreateShuffleVectorEPNS_5ValueES2_NS_8ArrayRefIiEERKNS_5TwineE(ptr noundef nonnull align 8 dereferenceable(128) %31, ptr noundef %32, ptr noundef %33, ptr nonnull @_ZZN12_GLOBAL__N_125X86InterleavedAccessGroup13transpose_4x4EN4llvm8ArrayRefIPNS1_11InstructionEEERNS1_15SmallVectorImplIPNS1_5ValueEEEE8IntMask2, i64 4, ptr noundef nonnull align 8 dereferenceable(34) %7)
  %36 = load ptr, ptr %12, align 8
  %37 = getelementptr inbounds nuw i8, ptr %8, i64 32
  store i16 257, ptr %37, align 8
  %38 = call noundef ptr @_ZN4llvm13IRBuilderBase19CreateShuffleVectorEPNS_5ValueES2_NS_8ArrayRefIiEERKNS_5TwineE(ptr noundef nonnull align 8 dereferenceable(128) %36, ptr noundef %18, ptr noundef %25, ptr nonnull @_ZZN12_GLOBAL__N_125X86InterleavedAccessGroup13transpose_4x4EN4llvm8ArrayRefIPNS1_11InstructionEEERNS1_15SmallVectorImplIPNS1_5ValueEEEE8IntMask3, i64 4, ptr noundef nonnull align 8 dereferenceable(34) %8)
  %39 = load ptr, ptr %2, align 8
  store ptr %38, ptr %39, align 8
  %40 = load ptr, ptr %12, align 8
  %41 = getelementptr inbounds nuw i8, ptr %9, i64 32
  store i16 257, ptr %41, align 8
  %42 = call noundef ptr @_ZN4llvm13IRBuilderBase19CreateShuffleVectorEPNS_5ValueES2_NS_8ArrayRefIiEERKNS_5TwineE(ptr noundef nonnull align 8 dereferenceable(128) %40, ptr noundef %30, ptr noundef %35, ptr nonnull @_ZZN12_GLOBAL__N_125X86InterleavedAccessGroup13transpose_4x4EN4llvm8ArrayRefIPNS1_11InstructionEEERNS1_15SmallVectorImplIPNS1_5ValueEEEE8IntMask3, i64 4, ptr noundef nonnull align 8 dereferenceable(34) %9)
  %43 = load ptr, ptr %2, align 8
  %44 = getelementptr inbounds i8, ptr %43, i64 16
  store ptr %42, ptr %44, align 8
  %45 = load ptr, ptr %12, align 8
  %46 = getelementptr inbounds nuw i8, ptr %10, i64 32
  store i16 257, ptr %46, align 8
  %47 = call noundef ptr @_ZN4llvm13IRBuilderBase19CreateShuffleVectorEPNS_5ValueES2_NS_8ArrayRefIiEERKNS_5TwineE(ptr noundef nonnull align 8 dereferenceable(128) %45, ptr noundef %18, ptr noundef %25, ptr nonnull @_ZZN12_GLOBAL__N_125X86InterleavedAccessGroup13transpose_4x4EN4llvm8ArrayRefIPNS1_11InstructionEEERNS1_15SmallVectorImplIPNS1_5ValueEEEE8IntMask4, i64 4, ptr noundef nonnull align 8 dereferenceable(34) %10)
  %48 = load ptr, ptr %2, align 8
  %49 = getelementptr inbounds i8, ptr %48, i64 8
  store ptr %47, ptr %49, align 8
  %50 = load ptr, ptr %12, align 8
  %51 = getelementptr inbounds nuw i8, ptr %11, i64 32
  store i16 257, ptr %51, align 8
  %52 = call noundef ptr @_ZN4llvm13IRBuilderBase19CreateShuffleVectorEPNS_5ValueES2_NS_8ArrayRefIiEERKNS_5TwineE(ptr noundef nonnull align 8 dereferenceable(128) %50, ptr noundef %30, ptr noundef %35, ptr nonnull @_ZZN12_GLOBAL__N_125X86InterleavedAccessGroup13transpose_4x4EN4llvm8ArrayRefIPNS1_11InstructionEEERNS1_15SmallVectorImplIPNS1_5ValueEEEE8IntMask4, i64 4, ptr noundef nonnull align 8 dereferenceable(34) %11)
  %53 = load ptr, ptr %2, align 8
  %54 = getelementptr inbounds i8, ptr %53, i64 24
  store ptr %52, ptr %54, align 8
  ret void
}